; Function Attrs: nounwind uwtable
define void @Abc_ObjTransferFanout(ptr noundef %0, ptr noundef %1) local_unnamed_addr #0 {
  %3 = getelementptr i8, ptr %1, i64 44
  %.val = load i32, ptr %3, align 4
  %4 = tail call noalias dereferenceable_or_null(16) ptr @malloc(i64 noundef 16) #9
  %5 = add i32 %.val, -1
  %or.cond.i = icmp ult i32 %5, 7
  %spec.store.select.i = select i1 %or.cond.i, i32 8, i32 %.val
  %6 = getelementptr inbounds nuw i8, ptr %4, i64 4
  store i32 0, ptr %6, align 4
  store i32 %spec.store.select.i, ptr %4, align 8
  %.not.i = icmp eq i32 %spec.store.select.i, 0
  br i1 %.not.i, label %Vec_PtrAlloc.exit, label %7

7:                                                ; preds = %2
  %8 = sext i32 %spec.store.select.i to i64
  %9 = shl nsw i64 %8, 3
  %10 = tail call noalias ptr @malloc(i64 noundef %9) #9
  br label %Vec_PtrAlloc.exit

Vec_PtrAlloc.exit:                                ; preds = %2, %7
  %11 = phi ptr [ %10, %7 ], [ null, %2 ]
  %12 = getelementptr inbounds nuw i8, ptr %4, i64 8
  store ptr %11, ptr %12, align 8
  tail call void @Abc_NodeCollectFanouts(ptr noundef %0, ptr noundef nonnull %4) #8
  %13 = load i32, ptr %6, align 4
  %14 = icmp sgt i32 %13, 0
  br i1 %14, label %.lr.ph, label %._crit_edge

.lr.ph:                                           ; preds = %Vec_PtrAlloc.exit, %.lr.ph
  %indvars.iv = phi i64 [ %indvars.iv.next, %.lr.ph ], [ 0, %Vec_PtrAlloc.exit ]
  %15 = load ptr, ptr %12, align 8
  %16 = getelementptr inbounds nuw ptr, ptr %15, i64 %indvars.iv
  %17 = load ptr, ptr %16, align 8
  tail call void @Abc_ObjPatchFanin(ptr noundef %17, ptr noundef %0, ptr noundef %1)
  %indvars.iv.next = add nuw nsw i64 %indvars.iv, 1
  %18 = load i32, ptr %6, align 4
  %19 = sext i32 %18 to i64
  %20 = icmp slt i64 %indvars.iv.next, %19
  br i1 %20, label %.lr.ph, label %._crit_edge, !llvm.loop !12

._crit_edge:                                      ; preds = %.lr.ph, %Vec_PtrAlloc.exit
  %21 = load ptr, ptr %12, align 8
  %.not.i11 = icmp eq ptr %21, null
  br i1 %.not.i11, label %Vec_PtrFree.exit, label %22

22:                                               ; preds = %._crit_edge
  tail call void @free(ptr noundef nonnull %21) #8
  br label %Vec_PtrFree.exit

Vec_PtrFree.exit:                                 ; preds = %._crit_edge, %22
  tail call void @free(ptr noundef nonnull %4) #8
  ret void
}